target datalayout = "e-m:e-p270:32:32-p271:32:32-p272:64:64-i64:64-i128:128-f80:128-n8:16:32:64-S128"
target triple = "x86_64-pc-linux-gnu"

%struct.rsa_gen_ctx = type { ptr, ptr, i32, i64, ptr, i64, %struct.rsa_pss_params_30_st, i32, ptr, ptr }
%struct.rsa_pss_params_30_st = type { i32, %struct.anon, i32, i32 }
%struct.anon = type { i32, i32 }

; Function Attrs: nounwind uwtable
define internal ptr @rsa_gen(ptr noundef %0, ptr noundef %1, ptr noundef %2) #0 {
  %4 = alloca ptr, align 8
  %5 = alloca ptr, align 8
  %6 = alloca ptr, align 8
  %7 = alloca ptr, align 8
  %8 = alloca ptr, align 8
  %9 = alloca ptr, align 8
  %10 = alloca ptr, align 8
  %11 = alloca ptr, align 8
  %12 = alloca i32, align 4
  store ptr %0, ptr %5, align 8, !tbaa !3
  store ptr %1, ptr %6, align 8, !tbaa !3
  store ptr %2, ptr %7, align 8, !tbaa !3
  call void @llvm.lifetime.start.p0(i64 8, ptr %8) #6
  %13 = load ptr, ptr %5, align 8, !tbaa !3
  store ptr %13, ptr %8, align 8, !tbaa !15
  call void @llvm.lifetime.start.p0(i64 8, ptr %9) #6
  store ptr null, ptr %9, align 8, !tbaa !9
  call void @llvm.lifetime.start.p0(i64 8, ptr %10) #6
  store ptr null, ptr %10, align 8, !tbaa !9
  call void @llvm.lifetime.start.p0(i64 8, ptr %11) #6
  store ptr null, ptr %11, align 8, !tbaa !26
  %14 = call i32 @ossl_prov_is_running()
  %15 = icmp ne i32 %14, 0
  br i1 %15, label %16, label %19

16:                                               ; preds = %3
  %17 = load ptr, ptr %8, align 8, !tbaa !15
  %18 = icmp eq ptr %17, null
  br i1 %18, label %19, label %20

19:                                               ; preds = %16, %3
  store ptr null, ptr %4, align 8
  store i32 1, ptr %12, align 4
  br label %88

20:                                               ; preds = %16
  %21 = load ptr, ptr %8, align 8, !tbaa !15
  %22 = getelementptr inbounds nuw %struct.rsa_gen_ctx, ptr %21, i32 0, i32 2
  %23 = load i32, ptr %22, align 8, !tbaa !24
  switch i32 %23, label %31 [
    i32 0, label %24
    i32 4096, label %32
  ]

24:                                               ; preds = %20
  %25 = load ptr, ptr %8, align 8, !tbaa !15
  %26 = getelementptr inbounds nuw %struct.rsa_gen_ctx, ptr %25, i32 0, i32 6
  %27 = call i32 @ossl_rsa_pss_params_30_is_unrestricted(ptr noundef %26)
  %28 = icmp ne i32 %27, 0
  br i1 %28, label %30, label %29

29:                                               ; preds = %24
  br label %84

30:                                               ; preds = %24
  br label %32

31:                                               ; preds = %20
  store ptr null, ptr %4, align 8
  store i32 1, ptr %12, align 4
  br label %88

32:                                               ; preds = %20, %30
  %33 = load ptr, ptr %8, align 8, !tbaa !15
  %34 = getelementptr inbounds nuw %struct.rsa_gen_ctx, ptr %33, i32 0, i32 0
  %35 = load ptr, ptr %34, align 8, !tbaa !25
  %36 = call ptr @ossl_rsa_new_with_ctx(ptr noundef %35)
  store ptr %36, ptr %10, align 8, !tbaa !9
  %37 = icmp eq ptr %36, null
  br i1 %37, label %38, label %39

38:                                               ; preds = %32
  store ptr null, ptr %4, align 8
  store i32 1, ptr %12, align 4
  br label %88

39:                                               ; preds = %32
  %40 = load ptr, ptr %6, align 8, !tbaa !3
  %41 = load ptr, ptr %8, align 8, !tbaa !15
  %42 = getelementptr inbounds nuw %struct.rsa_gen_ctx, ptr %41, i32 0, i32 8
  store ptr %40, ptr %42, align 8, !tbaa !28
  %43 = load ptr, ptr %7, align 8, !tbaa !3
  %44 = load ptr, ptr %8, align 8, !tbaa !15
  %45 = getelementptr inbounds nuw %struct.rsa_gen_ctx, ptr %44, i32 0, i32 9
  store ptr %43, ptr %45, align 8, !tbaa !29
  %46 = call ptr @BN_GENCB_new()
  store ptr %46, ptr %11, align 8, !tbaa !26
  %47 = load ptr, ptr %11, align 8, !tbaa !26
  %48 = icmp ne ptr %47, null
  br i1 %48, label %49, label %52

49:                                               ; preds = %39
  %50 = load ptr, ptr %11, align 8, !tbaa !26
  %51 = load ptr, ptr %5, align 8, !tbaa !3
  call void @BN_GENCB_set(ptr noundef %50, ptr noundef @rsa_gencb, ptr noundef %51)
  br label %52

52:                                               ; preds = %49, %39
  %53 = load ptr, ptr %10, align 8, !tbaa !9
  %54 = load ptr, ptr %8, align 8, !tbaa !15
  %55 = getelementptr inbounds nuw %struct.rsa_gen_ctx, ptr %54, i32 0, i32 3
  %56 = load i64, ptr %55, align 8, !tbaa !17
  %57 = trunc i64 %56 to i32
  %58 = load ptr, ptr %8, align 8, !tbaa !15
  %59 = getelementptr inbounds nuw %struct.rsa_gen_ctx, ptr %58, i32 0, i32 5
  %60 = load i64, ptr %59, align 8, !tbaa !30
  %61 = trunc i64 %60 to i32
  %62 = load ptr, ptr %8, align 8, !tbaa !15
  %63 = getelementptr inbounds nuw %struct.rsa_gen_ctx, ptr %62, i32 0, i32 4
  %64 = load ptr, ptr %63, align 8, !tbaa !31
  %65 = load ptr, ptr %11, align 8, !tbaa !26
  %66 = call i32 @RSA_generate_multi_prime_key(ptr noundef %53, i32 noundef %57, i32 noundef %61, ptr noundef %64, ptr noundef %65)
  %67 = icmp ne i32 %66, 0
  br i1 %67, label %69, label %68

68:                                               ; preds = %52
  br label %84

69:                                               ; preds = %52
  %70 = load ptr, ptr %10, align 8, !tbaa !9
  %71 = call ptr @ossl_rsa_get0_pss_params_30(ptr noundef %70)
  %72 = load ptr, ptr %8, align 8, !tbaa !15
  %73 = getelementptr inbounds nuw %struct.rsa_gen_ctx, ptr %72, i32 0, i32 6
  %74 = call i32 @ossl_rsa_pss_params_30_copy(ptr noundef %71, ptr noundef %73)
  %75 = icmp ne i32 %74, 0
  br i1 %75, label %77, label %76

76:                                               ; preds = %69
  br label %84

77:                                               ; preds = %69
  %78 = load ptr, ptr %10, align 8, !tbaa !9
  call void @RSA_clear_flags(ptr noundef %78, i32 noundef 61440)
  %79 = load ptr, ptr %10, align 8, !tbaa !9
  %80 = load ptr, ptr %8, align 8, !tbaa !15
  %81 = getelementptr inbounds nuw %struct.rsa_gen_ctx, ptr %80, i32 0, i32 2
  %82 = load i32, ptr %81, align 8, !tbaa !24
  call void @RSA_set_flags(ptr noundef %79, i32 noundef %82)
  %83 = load ptr, ptr %10, align 8, !tbaa !9
  store ptr %83, ptr %9, align 8, !tbaa !9
  store ptr null, ptr %10, align 8, !tbaa !9
  br label %84

84:                                               ; preds = %77, %76, %68, %29
  %85 = load ptr, ptr %11, align 8, !tbaa !26
  call void @BN_GENCB_free(ptr noundef %85)
  %86 = load ptr, ptr %10, align 8, !tbaa !9
  call void @RSA_free(ptr noundef %86)
  %87 = load ptr, ptr %9, align 8, !tbaa !9
  store ptr %87, ptr %4, align 8
  store i32 1, ptr %12, align 4
  br label %88

88:                                               ; preds = %84, %38, %31, %19
  call void @llvm.lifetime.end.p0(i64 8, ptr %11) #6
  call void @llvm.lifetime.end.p0(i64 8, ptr %10) #6
  call void @llvm.lifetime.end.p0(i64 8, ptr %9) #6
  call void @llvm.lifetime.end.p0(i64 8, ptr %8) #6
  %89 = load ptr, ptr %4, align 8
  ret ptr %89
}