; Function Attrs: nounwind uwtable
define internal ptr @rsa_gen(ptr noundef %0, ptr noundef %1, ptr noundef %2) #0 {
  %4 = tail call i32 @ossl_prov_is_running() #6
  %5 = icmp eq i32 %4, 0
  %6 = icmp eq ptr %0, null
  %or.cond = or i1 %6, %5
  br i1 %or.cond, label %39, label %7

7:                                                ; preds = %3
  %8 = getelementptr inbounds nuw i8, ptr %0, i64 16
  %9 = load i32, ptr %8, align 8, !tbaa !17
  switch i32 %9, label %39 [
    i32 0, label %10
    i32 4096, label %13
  ]

10:                                               ; preds = %7
  %11 = getelementptr inbounds nuw i8, ptr %0, i64 48
  %12 = tail call i32 @ossl_rsa_pss_params_30_is_unrestricted(ptr noundef nonnull %11) #6
  %.not = icmp eq i32 %12, 0
  br i1 %.not, label %38, label %13

13:                                               ; preds = %10, %7
  %14 = load ptr, ptr %0, align 8, !tbaa !18
  %15 = tail call ptr @ossl_rsa_new_with_ctx(ptr noundef %14) #6
  %16 = icmp eq ptr %15, null
  br i1 %16, label %39, label %17

17:                                               ; preds = %13
  %18 = getelementptr inbounds nuw i8, ptr %0, i64 72
  store ptr %1, ptr %18, align 8, !tbaa !19
  %19 = getelementptr inbounds nuw i8, ptr %0, i64 80
  store ptr %2, ptr %19, align 8, !tbaa !20
  %20 = tail call ptr @BN_GENCB_new() #6
  %.not34 = icmp eq ptr %20, null
  br i1 %.not34, label %22, label %21

21:                                               ; preds = %17
  tail call void @BN_GENCB_set(ptr noundef nonnull %20, ptr noundef nonnull @rsa_gencb, ptr noundef nonnull %0) #6
  br label %22

22:                                               ; preds = %21, %17
  %23 = getelementptr inbounds nuw i8, ptr %0, i64 24
  %24 = load i64, ptr %23, align 8, !tbaa !11
  %25 = trunc i64 %24 to i32
  %26 = getelementptr inbounds nuw i8, ptr %0, i64 40
  %27 = load i64, ptr %26, align 8, !tbaa !21
  %28 = trunc i64 %27 to i32
  %29 = getelementptr inbounds nuw i8, ptr %0, i64 32
  %30 = load ptr, ptr %29, align 8, !tbaa !22
  %31 = tail call i32 @RSA_generate_multi_prime_key(ptr noundef nonnull %15, i32 noundef %25, i32 noundef %28, ptr noundef %30, ptr noundef %20) #6
  %.not35 = icmp eq i32 %31, 0
  br i1 %.not35, label %38, label %32

32:                                               ; preds = %22
  %33 = tail call ptr @ossl_rsa_get0_pss_params_30(ptr noundef nonnull %15) #6
  %34 = getelementptr inbounds nuw i8, ptr %0, i64 48
  %35 = tail call i32 @ossl_rsa_pss_params_30_copy(ptr noundef %33, ptr noundef nonnull %34) #6
  %.not36 = icmp eq i32 %35, 0
  br i1 %.not36, label %38, label %36

36:                                               ; preds = %32
  tail call void @RSA_clear_flags(ptr noundef nonnull %15, i32 noundef 61440) #6
  %37 = load i32, ptr %8, align 8, !tbaa !17
  tail call void @RSA_set_flags(ptr noundef nonnull %15, i32 noundef %37) #6
  br label %38

38:                                               ; preds = %32, %22, %10, %36
  %.029 = phi ptr [ %15, %36 ], [ null, %32 ], [ null, %22 ], [ null, %10 ]
  %.028 = phi ptr [ null, %36 ], [ %15, %32 ], [ %15, %22 ], [ null, %10 ]
  %.0 = phi ptr [ %20, %36 ], [ %20, %32 ], [ %20, %22 ], [ null, %10 ]
  tail call void @BN_GENCB_free(ptr noundef %.0) #6
  tail call void @RSA_free(ptr noundef %.028) #6
  br label %39

39:                                               ; preds = %13, %7, %3, %38
  %.030 = phi ptr [ %.029, %38 ], [ null, %3 ], [ null, %7 ], [ null, %13 ]
  ret ptr %.030
}